; Function Attrs: mustprogress uwtable
define noundef zeroext i1 @_ZN7rocksdb8EndsWithERKNSt7__cxx1112basic_stringIcSt11char_traitsIcESaIcEEES7_(ptr noundef nonnull align 8 dereferenceable(32) %0, ptr noundef nonnull align 8 dereferenceable(32) %1) local_unnamed_addr #3 {
  %3 = getelementptr inbounds nuw i8, ptr %1, i64 8
  %4 = load i64, ptr %3, align 8, !tbaa !10
  %5 = getelementptr inbounds nuw i8, ptr %0, i64 8
  %6 = load i64, ptr %5, align 8, !tbaa !10
  %.not = icmp ugt i64 %4, %6
  br i1 %.not, label %11, label %7

7:                                                ; preds = %2
  %8 = sub nuw i64 %6, %4
  %9 = tail call noundef i32 @_ZNKSt7__cxx1112basic_stringIcSt11char_traitsIcESaIcEE7compareEmmRKS4_(ptr noundef nonnull align 8 dereferenceable(32) %0, i64 noundef %8, i64 noundef %4, ptr noundef nonnull align 8 dereferenceable(32) %1)
  %10 = icmp eq i32 %9, 0
  br label %11

11:                                               ; preds = %2, %7
  %.0 = phi i1 [ %10, %7 ], [ false, %2 ]
  ret i1 %.0
}